; Function Attrs: mustprogress nofree norecurse nosync nounwind willreturn memory(argmem: readwrite) uwtable
define dso_local void @_ZN23btPoint2PointConstraint18getInfo1NonVirtualEPN17btTypedConstraint17btConstraintInfo1E(ptr nocapture noundef nonnull readonly align 8 dereferenceable(384) %this, ptr nocapture noundef writeonly %info) local_unnamed_addr #6 align 2 {
entry:
  %m_useSolveConstraintObsolete = getelementptr inbounds i8, ptr %this, i64 368
  %0 = load i8, ptr %m_useSolveConstraintObsolete, align 8
  %1 = and i8 %0, 1
  %tobool.not = icmp eq i8 %1, 0
  %spec.select = select i1 %tobool.not, i32 3, i32 0
  store i32 %spec.select, ptr %info, align 4
  %2 = getelementptr inbounds i8, ptr %info, i64 4
  store i32 %spec.select, ptr %2, align 4
  ret void
}